target datalayout = "e-m:e-p270:32:32-p271:32:32-p272:64:64-i64:64-i128:128-f80:128-n8:16:32:64-S128"
target triple = "x86_64-pc-linux-gnu"

%struct.nstime_t = type { i64, i32 }
%struct._address = type { i32, i32, ptr, ptr }
%struct._follow_info = type { i32, ptr, ptr, [2 x i32], [2 x i32], [2 x ptr], i32, i32, %struct._address, %struct._address, ptr, i64 }
%struct.follow_record_t = type { i32, i32, i32, %struct.nstime_t, ptr }
%struct._GByteArray = type { ptr, i32 }
%struct._GList = type { ptr, ptr, ptr }

@.str.980 = private unnamed_addr constant [35 x i8] c"[%d bytes missing in capture file]\00", align 1

; Function Attrs: nounwind uwtable
define internal i32 @check_follow_fragments(ptr noundef %0, i32 noundef %1, i32 noundef %2, i32 noundef %3, i32 noundef %4) #0 {
  %6 = alloca i32, align 4
  %7 = alloca ptr, align 8
  %8 = alloca i32, align 4
  %9 = alloca i32, align 4
  %10 = alloca i32, align 4
  %11 = alloca i32, align 4
  %12 = alloca ptr, align 8
  %13 = alloca ptr, align 8
  %14 = alloca ptr, align 8
  %15 = alloca i32, align 4
  %16 = alloca ptr, align 8
  %17 = alloca i32, align 4
  %18 = alloca i32, align 4
  %19 = alloca i32, align 4
  store ptr %0, ptr %7, align 8
  store i32 %1, ptr %8, align 4
  store i32 %2, ptr %9, align 4
  store i32 %3, ptr %10, align 4
  store i32 %4, ptr %11, align 4
  store i32 0, ptr %15, align 4
  %20 = load ptr, ptr %7, align 8
  %21 = getelementptr inbounds %struct._follow_info, ptr %20, i32 0, i32 5
  %22 = load i32, ptr %8, align 4
  %23 = sext i32 %22 to i64
  %24 = getelementptr [2 x ptr], ptr %21, i64 0, i64 %23
  %25 = load ptr, ptr %24, align 8
  %26 = call ptr @g_list_first(ptr noundef %25)
  store ptr %26, ptr %12, align 8
  %27 = load ptr, ptr %12, align 8
  %28 = icmp eq ptr %27, null
  br i1 %28, label %29, label %30

29:                                               ; preds = %5
  store i32 0, ptr %6, align 4
  br label %303

30:                                               ; preds = %5
  %31 = load ptr, ptr %12, align 8
  %32 = getelementptr inbounds %struct._GList, ptr %31, i32 0, i32 0
  %33 = load ptr, ptr %32, align 8
  store ptr %33, ptr %13, align 8
  %34 = load ptr, ptr %13, align 8
  %35 = getelementptr inbounds %struct.follow_record_t, ptr %34, i32 0, i32 2
  %36 = load i32, ptr %35, align 8
  store i32 %36, ptr %15, align 4
  br label %37

37:                                               ; preds = %249, %30
  %38 = load ptr, ptr %12, align 8
  %39 = icmp ne ptr %38, null
  br i1 %39, label %40, label %251

40:                                               ; preds = %37
  %41 = load ptr, ptr %12, align 8
  %42 = getelementptr inbounds %struct._GList, ptr %41, i32 0, i32 0
  %43 = load ptr, ptr %42, align 8
  store ptr %43, ptr %13, align 8
  %44 = load ptr, ptr %13, align 8
  %45 = getelementptr inbounds %struct.follow_record_t, ptr %44, i32 0, i32 2
  %46 = load i32, ptr %45, align 8
  %47 = load i32, ptr %15, align 4
  %48 = sub i32 %46, %47
  %49 = icmp slt i32 %48, 0
  br i1 %49, label %50, label %54

50:                                               ; preds = %40
  %51 = load ptr, ptr %13, align 8
  %52 = getelementptr inbounds %struct.follow_record_t, ptr %51, i32 0, i32 2
  %53 = load i32, ptr %52, align 8
  store i32 %53, ptr %15, align 4
  br label %54

54:                                               ; preds = %50, %40
  %55 = load ptr, ptr %13, align 8
  %56 = getelementptr inbounds %struct.follow_record_t, ptr %55, i32 0, i32 2
  %57 = load i32, ptr %56, align 8
  %58 = load ptr, ptr %7, align 8
  %59 = getelementptr inbounds %struct._follow_info, ptr %58, i32 0, i32 4
  %60 = load i32, ptr %8, align 4
  %61 = sext i32 %60 to i64
  %62 = getelementptr [2 x i32], ptr %59, i64 0, i64 %61
  %63 = load i32, ptr %62, align 4
  %64 = sub i32 %57, %63
  %65 = icmp slt i32 %64, 0
  br i1 %65, label %66, label %188

66:                                               ; preds = %54
  %67 = load ptr, ptr %13, align 8
  %68 = getelementptr inbounds %struct.follow_record_t, ptr %67, i32 0, i32 2
  %69 = load i32, ptr %68, align 8
  %70 = load ptr, ptr %13, align 8
  %71 = getelementptr inbounds %struct.follow_record_t, ptr %70, i32 0, i32 4
  %72 = load ptr, ptr %71, align 8
  %73 = getelementptr inbounds %struct._GByteArray, ptr %72, i32 0, i32 1
  %74 = load i32, ptr %73, align 8
  %75 = add i32 %69, %74
  store i32 %75, ptr %17, align 4
  %76 = load ptr, ptr %7, align 8
  %77 = getelementptr inbounds %struct._follow_info, ptr %76, i32 0, i32 4
  %78 = load i32, ptr %8, align 4
  %79 = sext i32 %78 to i64
  %80 = getelementptr [2 x i32], ptr %77, i64 0, i64 %79
  %81 = load i32, ptr %80, align 4
  %82 = load i32, ptr %17, align 4
  %83 = sub i32 %81, %82
  %84 = icmp slt i32 %83, 0
  br i1 %84, label %85, label %169

85:                                               ; preds = %66
  %86 = load ptr, ptr %7, align 8
  %87 = getelementptr inbounds %struct._follow_info, ptr %86, i32 0, i32 4
  %88 = load i32, ptr %8, align 4
  %89 = sext i32 %88 to i64
  %90 = getelementptr [2 x i32], ptr %87, i64 0, i64 %89
  %91 = load i32, ptr %90, align 4
  %92 = load ptr, ptr %13, align 8
  %93 = getelementptr inbounds %struct.follow_record_t, ptr %92, i32 0, i32 2
  %94 = load i32, ptr %93, align 8
  %95 = sub i32 %91, %94
  store i32 %95, ptr %18, align 4
  %96 = load ptr, ptr %13, align 8
  %97 = getelementptr inbounds %struct.follow_record_t, ptr %96, i32 0, i32 4
  %98 = load ptr, ptr %97, align 8
  %99 = getelementptr inbounds %struct._GByteArray, ptr %98, i32 0, i32 1
  %100 = load i32, ptr %99, align 8
  %101 = load i32, ptr %18, align 4
  %102 = icmp ugt i32 %100, %101
  br i1 %102, label %103, label %154

103:                                              ; preds = %85
  %104 = load ptr, ptr %13, align 8
  %105 = getelementptr inbounds %struct.follow_record_t, ptr %104, i32 0, i32 4
  %106 = load ptr, ptr %105, align 8
  %107 = getelementptr inbounds %struct._GByteArray, ptr %106, i32 0, i32 1
  %108 = load i32, ptr %107, align 8
  %109 = load i32, ptr %18, align 4
  %110 = sub i32 %108, %109
  store i32 %110, ptr %19, align 4
  %111 = call noalias ptr @g_malloc0_n(i64 noundef 1, i64 noundef 40) #17
  store ptr %111, ptr %14, align 8
  %112 = load i32, ptr %8, align 4
  %113 = load ptr, ptr %14, align 8
  %114 = getelementptr inbounds %struct.follow_record_t, ptr %113, i32 0, i32 0
  store i32 %112, ptr %114, align 8
  %115 = load ptr, ptr %13, align 8
  %116 = getelementptr inbounds %struct.follow_record_t, ptr %115, i32 0, i32 1
  %117 = load i32, ptr %116, align 4
  %118 = load ptr, ptr %14, align 8
  %119 = getelementptr inbounds %struct.follow_record_t, ptr %118, i32 0, i32 1
  store i32 %117, ptr %119, align 4
  %120 = load ptr, ptr %14, align 8
  %121 = getelementptr inbounds %struct.follow_record_t, ptr %120, i32 0, i32 3
  %122 = load ptr, ptr %13, align 8
  %123 = getelementptr inbounds %struct.follow_record_t, ptr %122, i32 0, i32 3
  call void @llvm.memcpy.p0.p0.i64(ptr align 8 %121, ptr align 8 %123, i64 16, i1 false)
  %124 = load ptr, ptr %7, align 8
  %125 = getelementptr inbounds %struct._follow_info, ptr %124, i32 0, i32 4
  %126 = load i32, ptr %8, align 4
  %127 = sext i32 %126 to i64
  %128 = getelementptr [2 x i32], ptr %125, i64 0, i64 %127
  %129 = load i32, ptr %128, align 4
  %130 = load i32, ptr %19, align 4
  %131 = add i32 %129, %130
  %132 = load ptr, ptr %14, align 8
  %133 = getelementptr inbounds %struct.follow_record_t, ptr %132, i32 0, i32 2
  store i32 %131, ptr %133, align 8
  %134 = call ptr @g_byte_array_new()
  %135 = load ptr, ptr %13, align 8
  %136 = getelementptr inbounds %struct.follow_record_t, ptr %135, i32 0, i32 4
  %137 = load ptr, ptr %136, align 8
  %138 = getelementptr inbounds %struct._GByteArray, ptr %137, i32 0, i32 0
  %139 = load ptr, ptr %138, align 8
  %140 = load i32, ptr %18, align 4
  %141 = zext i32 %140 to i64
  %142 = getelementptr i8, ptr %139, i64 %141
  %143 = load i32, ptr %19, align 4
  %144 = call ptr @g_byte_array_append(ptr noundef %134, ptr noundef %142, i32 noundef %143)
  %145 = load ptr, ptr %14, align 8
  %146 = getelementptr inbounds %struct.follow_record_t, ptr %145, i32 0, i32 4
  store ptr %144, ptr %146, align 8
  %147 = load ptr, ptr %7, align 8
  %148 = getelementptr inbounds %struct._follow_info, ptr %147, i32 0, i32 2
  %149 = load ptr, ptr %148, align 8
  %150 = load ptr, ptr %14, align 8
  %151 = call ptr @g_list_prepend(ptr noundef %149, ptr noundef %150)
  %152 = load ptr, ptr %7, align 8
  %153 = getelementptr inbounds %struct._follow_info, ptr %152, i32 0, i32 2
  store ptr %151, ptr %153, align 8
  br label %154

154:                                              ; preds = %103, %85
  %155 = load ptr, ptr %13, align 8
  %156 = getelementptr inbounds %struct.follow_record_t, ptr %155, i32 0, i32 4
  %157 = load ptr, ptr %156, align 8
  %158 = getelementptr inbounds %struct._GByteArray, ptr %157, i32 0, i32 1
  %159 = load i32, ptr %158, align 8
  %160 = load i32, ptr %18, align 4
  %161 = sub i32 %159, %160
  %162 = load ptr, ptr %7, align 8
  %163 = getelementptr inbounds %struct._follow_info, ptr %162, i32 0, i32 4
  %164 = load i32, ptr %8, align 4
  %165 = sext i32 %164 to i64
  %166 = getelementptr [2 x i32], ptr %163, i64 0, i64 %165
  %167 = load i32, ptr %166, align 4
  %168 = add i32 %167, %161
  store i32 %168, ptr %166, align 4
  br label %169

169:                                              ; preds = %154, %66
  %170 = load ptr, ptr %13, align 8
  %171 = getelementptr inbounds %struct.follow_record_t, ptr %170, i32 0, i32 4
  %172 = load ptr, ptr %171, align 8
  %173 = call ptr @g_byte_array_free(ptr noundef %172, i32 noundef 1)
  %174 = load ptr, ptr %13, align 8
  call void @g_free(ptr noundef %174)
  %175 = load ptr, ptr %7, align 8
  %176 = getelementptr inbounds %struct._follow_info, ptr %175, i32 0, i32 5
  %177 = load i32, ptr %8, align 4
  %178 = sext i32 %177 to i64
  %179 = getelementptr [2 x ptr], ptr %176, i64 0, i64 %178
  %180 = load ptr, ptr %179, align 8
  %181 = load ptr, ptr %12, align 8
  %182 = call ptr @g_list_delete_link(ptr noundef %180, ptr noundef %181)
  %183 = load ptr, ptr %7, align 8
  %184 = getelementptr inbounds %struct._follow_info, ptr %183, i32 0, i32 5
  %185 = load i32, ptr %8, align 4
  %186 = sext i32 %185 to i64
  %187 = getelementptr [2 x ptr], ptr %184, i64 0, i64 %186
  store ptr %182, ptr %187, align 8
  store i32 1, ptr %6, align 4
  br label %303

188:                                              ; preds = %54
  %189 = load ptr, ptr %13, align 8
  %190 = getelementptr inbounds %struct.follow_record_t, ptr %189, i32 0, i32 2
  %191 = load i32, ptr %190, align 8
  %192 = load ptr, ptr %7, align 8
  %193 = getelementptr inbounds %struct._follow_info, ptr %192, i32 0, i32 4
  %194 = load i32, ptr %8, align 4
  %195 = sext i32 %194 to i64
  %196 = getelementptr [2 x i32], ptr %193, i64 0, i64 %195
  %197 = load i32, ptr %196, align 4
  %198 = icmp eq i32 %191, %197
  br i1 %198, label %199, label %240

199:                                              ; preds = %188
  %200 = load ptr, ptr %13, align 8
  %201 = getelementptr inbounds %struct.follow_record_t, ptr %200, i32 0, i32 4
  %202 = load ptr, ptr %201, align 8
  %203 = getelementptr inbounds %struct._GByteArray, ptr %202, i32 0, i32 1
  %204 = load i32, ptr %203, align 8
  %205 = icmp ugt i32 %204, 0
  br i1 %205, label %206, label %214

206:                                              ; preds = %199
  %207 = load ptr, ptr %7, align 8
  %208 = getelementptr inbounds %struct._follow_info, ptr %207, i32 0, i32 2
  %209 = load ptr, ptr %208, align 8
  %210 = load ptr, ptr %13, align 8
  %211 = call ptr @g_list_prepend(ptr noundef %209, ptr noundef %210)
  %212 = load ptr, ptr %7, align 8
  %213 = getelementptr inbounds %struct._follow_info, ptr %212, i32 0, i32 2
  store ptr %211, ptr %213, align 8
  br label %214

214:                                              ; preds = %206, %199
  %215 = load ptr, ptr %13, align 8
  %216 = getelementptr inbounds %struct.follow_record_t, ptr %215, i32 0, i32 4
  %217 = load ptr, ptr %216, align 8
  %218 = getelementptr inbounds %struct._GByteArray, ptr %217, i32 0, i32 1
  %219 = load i32, ptr %218, align 8
  %220 = load ptr, ptr %7, align 8
  %221 = getelementptr inbounds %struct._follow_info, ptr %220, i32 0, i32 4
  %222 = load i32, ptr %8, align 4
  %223 = sext i32 %222 to i64
  %224 = getelementptr [2 x i32], ptr %221, i64 0, i64 %223
  %225 = load i32, ptr %224, align 4
  %226 = add i32 %225, %219
  store i32 %226, ptr %224, align 4
  %227 = load ptr, ptr %7, align 8
  %228 = getelementptr inbounds %struct._follow_info, ptr %227, i32 0, i32 5
  %229 = load i32, ptr %8, align 4
  %230 = sext i32 %229 to i64
  %231 = getelementptr [2 x ptr], ptr %228, i64 0, i64 %230
  %232 = load ptr, ptr %231, align 8
  %233 = load ptr, ptr %12, align 8
  %234 = call ptr @g_list_delete_link(ptr noundef %232, ptr noundef %233)
  %235 = load ptr, ptr %7, align 8
  %236 = getelementptr inbounds %struct._follow_info, ptr %235, i32 0, i32 5
  %237 = load i32, ptr %8, align 4
  %238 = sext i32 %237 to i64
  %239 = getelementptr [2 x ptr], ptr %236, i64 0, i64 %238
  store ptr %234, ptr %239, align 8
  store i32 1, ptr %6, align 4
  br label %303

240:                                              ; preds = %188
  br label %241

241:                                              ; preds = %240
  %242 = load ptr, ptr %12, align 8
  %243 = icmp ne ptr %242, null
  br i1 %243, label %244, label %248

244:                                              ; preds = %241
  %245 = load ptr, ptr %12, align 8
  %246 = getelementptr inbounds %struct._GList, ptr %245, i32 0, i32 1
  %247 = load ptr, ptr %246, align 8
  br label %249

248:                                              ; preds = %241
  br label %249

249:                                              ; preds = %248, %244
  %250 = phi ptr [ %247, %244 ], [ null, %248 ]
  store ptr %250, ptr %12, align 8
  br label %37, !llvm.loop !33

251:                                              ; preds = %37
  %252 = load i32, ptr %11, align 4
  %253 = icmp ne i32 %252, 0
  br i1 %253, label %254, label %302

254:                                              ; preds = %251
  %255 = load i32, ptr %15, align 4
  %256 = load i32, ptr %9, align 4
  %257 = sub i32 %255, %256
  %258 = icmp slt i32 %257, 0
  br i1 %258, label %259, label %302

259:                                              ; preds = %254
  %260 = load i32, ptr %15, align 4
  %261 = load ptr, ptr %7, align 8
  %262 = getelementptr inbounds %struct._follow_info, ptr %261, i32 0, i32 4
  %263 = load i32, ptr %8, align 4
  %264 = sext i32 %263 to i64
  %265 = getelementptr [2 x i32], ptr %262, i64 0, i64 %264
  %266 = load i32, ptr %265, align 4
  %267 = sub i32 %260, %266
  %268 = call noalias ptr (ptr, ptr, ...) @wmem_strdup_printf(ptr noundef null, ptr noundef @.str.980, i32 noundef %267)
  store ptr %268, ptr %16, align 8
  %269 = call noalias ptr @g_malloc0_n(i64 noundef 1, i64 noundef 40) #17
  store ptr %269, ptr %14, align 8
  %270 = call ptr @g_byte_array_new()
  %271 = load ptr, ptr %16, align 8
  %272 = load ptr, ptr %16, align 8
  %273 = call i64 @strlen(ptr noundef %272) #11
  %274 = trunc i64 %273 to i32
  %275 = add i32 %274, 1
  %276 = call ptr @g_byte_array_append(ptr noundef %270, ptr noundef %271, i32 noundef %275)
  %277 = load ptr, ptr %14, align 8
  %278 = getelementptr inbounds %struct.follow_record_t, ptr %277, i32 0, i32 4
  store ptr %276, ptr %278, align 8
  %279 = load ptr, ptr %16, align 8
  call void @g_free(ptr noundef %279)
  %280 = load i32, ptr %8, align 4
  %281 = load ptr, ptr %14, align 8
  %282 = getelementptr inbounds %struct.follow_record_t, ptr %281, i32 0, i32 0
  store i32 %280, ptr %282, align 8
  %283 = load i32, ptr %10, align 4
  %284 = load ptr, ptr %14, align 8
  %285 = getelementptr inbounds %struct.follow_record_t, ptr %284, i32 0, i32 1
  store i32 %283, ptr %285, align 4
  %286 = load i32, ptr %15, align 4
  %287 = load ptr, ptr %14, align 8
  %288 = getelementptr inbounds %struct.follow_record_t, ptr %287, i32 0, i32 2
  store i32 %286, ptr %288, align 8
  %289 = load i32, ptr %15, align 4
  %290 = load ptr, ptr %7, align 8
  %291 = getelementptr inbounds %struct._follow_info, ptr %290, i32 0, i32 4
  %292 = load i32, ptr %8, align 4
  %293 = sext i32 %292 to i64
  %294 = getelementptr [2 x i32], ptr %291, i64 0, i64 %293
  store i32 %289, ptr %294, align 4
  %295 = load ptr, ptr %7, align 8
  %296 = getelementptr inbounds %struct._follow_info, ptr %295, i32 0, i32 2
  %297 = load ptr, ptr %296, align 8
  %298 = load ptr, ptr %14, align 8
  %299 = call ptr @g_list_prepend(ptr noundef %297, ptr noundef %298)
  %300 = load ptr, ptr %7, align 8
  %301 = getelementptr inbounds %struct._follow_info, ptr %300, i32 0, i32 2
  store ptr %299, ptr %301, align 8
  store i32 1, ptr %6, align 4
  br label %303

302:                                              ; preds = %254, %251
  store i32 0, ptr %6, align 4
  br label %303

303:                                              ; preds = %302, %259, %214, %169, %29
  %304 = load i32, ptr %6, align 4
  ret i32 %304
}