; Function Attrs: nounwind uwtable
define internal fastcc range(i32 0, 2) i32 @check_follow_fragments(ptr noundef captures(none) %0, i32 noundef range(i32 0, 2) %1, i32 noundef %2, i32 noundef %3, i32 noundef range(i32 0, 2) %4) unnamed_addr #0 {
  %6 = getelementptr inbounds nuw i8, ptr %0, i64 40
  %7 = zext nneg i32 %1 to i64
  %8 = getelementptr [2 x ptr], ptr %6, i64 0, i64 %7
  %9 = load ptr, ptr %8, align 8
  %10 = tail call ptr @g_list_first(ptr noundef %9) #20
  %11 = icmp eq ptr %10, null
  br i1 %11, label %107, label %12

12:                                               ; preds = %5
  %13 = load ptr, ptr %10, align 8
  %14 = getelementptr inbounds nuw i8, ptr %13, i64 8
  %15 = load i32, ptr %14, align 8
  %16 = getelementptr inbounds nuw i8, ptr %0, i64 32
  %17 = getelementptr [2 x i32], ptr %16, i64 0, i64 %7
  %18 = load i32, ptr %17, align 4
  br label %19

19:                                               ; preds = %12, %86
  %.092117 = phi ptr [ %10, %12 ], [ %88, %86 ]
  %.093116 = phi i32 [ %15, %12 ], [ %spec.select, %86 ]
  %20 = load ptr, ptr %.092117, align 8
  %21 = getelementptr inbounds nuw i8, ptr %20, i64 8
  %22 = load i32, ptr %21, align 8
  %23 = sub i32 %22, %.093116
  %24 = icmp slt i32 %23, 0
  %spec.select = select i1 %24, i32 %22, i32 %.093116
  %25 = sub i32 %22, %18
  %26 = icmp slt i32 %25, 0
  br i1 %26, label %27, label %69

27:                                               ; preds = %19
  %28 = getelementptr inbounds nuw i8, ptr %20, i64 32
  %29 = load ptr, ptr %28, align 8
  %30 = getelementptr inbounds nuw i8, ptr %29, i64 8
  %31 = load i32, ptr %30, align 8
  %32 = add i32 %22, %31
  %33 = sub i32 %18, %32
  %34 = icmp slt i32 %33, 0
  br i1 %34, label %35, label %64

35:                                               ; preds = %27
  %36 = sub i32 %18, %22
  %37 = icmp ugt i32 %31, %36
  br i1 %37, label %38, label %59

38:                                               ; preds = %35
  %39 = sub nuw i32 %31, %36
  %40 = tail call noalias dereferenceable_or_null(40) ptr @g_malloc0_n(i64 noundef 1, i64 noundef 40) #25
  store i32 %1, ptr %40, align 8
  %41 = getelementptr inbounds nuw i8, ptr %20, i64 4
  %42 = load i32, ptr %41, align 4
  %43 = getelementptr inbounds nuw i8, ptr %40, i64 4
  store i32 %42, ptr %43, align 4
  %44 = getelementptr inbounds nuw i8, ptr %40, i64 16
  %45 = getelementptr inbounds nuw i8, ptr %20, i64 16
  tail call void @llvm.memcpy.p0.p0.i64(ptr noundef nonnull align 8 dereferenceable(16) %44, ptr noundef nonnull align 8 dereferenceable(16) %45, i64 16, i1 false)
  %46 = load i32, ptr %17, align 4
  %47 = add i32 %46, %39
  %48 = getelementptr inbounds nuw i8, ptr %40, i64 8
  store i32 %47, ptr %48, align 8
  %49 = tail call ptr @g_byte_array_new() #20
  %50 = load ptr, ptr %28, align 8
  %51 = load ptr, ptr %50, align 8
  %52 = zext i32 %36 to i64
  %53 = getelementptr i8, ptr %51, i64 %52
  %54 = tail call ptr @g_byte_array_append(ptr noundef %49, ptr noundef %53, i32 noundef %39) #20
  %55 = getelementptr inbounds nuw i8, ptr %40, i64 32
  store ptr %54, ptr %55, align 8
  %56 = getelementptr inbounds nuw i8, ptr %0, i64 16
  %57 = load ptr, ptr %56, align 8
  %58 = tail call ptr @g_list_prepend(ptr noundef %57, ptr noundef nonnull %40) #20
  store ptr %58, ptr %56, align 8
  %.pre129 = load ptr, ptr %28, align 8
  %.phi.trans.insert130 = getelementptr inbounds nuw i8, ptr %.pre129, i64 8
  %.pre131 = load i32, ptr %.phi.trans.insert130, align 8
  %.pre132 = load i32, ptr %17, align 4
  br label %59

59:                                               ; preds = %38, %35
  %60 = phi i32 [ %.pre132, %38 ], [ %18, %35 ]
  %61 = phi i32 [ %.pre131, %38 ], [ %31, %35 ]
  %62 = sub i32 %61, %36
  %63 = add i32 %62, %60
  store i32 %63, ptr %17, align 4
  %.pre133 = load ptr, ptr %28, align 8
  br label %64

64:                                               ; preds = %59, %27
  %65 = phi ptr [ %.pre133, %59 ], [ %29, %27 ]
  %66 = tail call ptr @g_byte_array_free(ptr noundef %65, i32 noundef 1) #20
  tail call void @g_free(ptr noundef nonnull %20) #20
  %67 = load ptr, ptr %8, align 8
  %68 = tail call ptr @g_list_delete_link(ptr noundef %67, ptr noundef nonnull %.092117) #20
  store ptr %68, ptr %8, align 8
  br label %107

69:                                               ; preds = %19
  %70 = icmp eq i32 %22, %18
  br i1 %70, label %71, label %86

71:                                               ; preds = %69
  %72 = getelementptr inbounds nuw i8, ptr %20, i64 32
  %73 = load ptr, ptr %72, align 8
  %74 = getelementptr inbounds nuw i8, ptr %73, i64 8
  %75 = load i32, ptr %74, align 8
  %.not98 = icmp eq i32 %75, 0
  br i1 %.not98, label %80, label %76

76:                                               ; preds = %71
  %77 = getelementptr inbounds nuw i8, ptr %0, i64 16
  %78 = load ptr, ptr %77, align 8
  %79 = tail call ptr @g_list_prepend(ptr noundef %78, ptr noundef nonnull %20) #20
  store ptr %79, ptr %77, align 8
  %.pre = load ptr, ptr %72, align 8
  %.phi.trans.insert = getelementptr inbounds nuw i8, ptr %.pre, i64 8
  %.pre127 = load i32, ptr %.phi.trans.insert, align 8
  %.pre128 = load i32, ptr %17, align 4
  br label %80

80:                                               ; preds = %76, %71
  %81 = phi i32 [ %.pre128, %76 ], [ %18, %71 ]
  %82 = phi i32 [ %.pre127, %76 ], [ 0, %71 ]
  %83 = add i32 %81, %82
  store i32 %83, ptr %17, align 4
  %84 = load ptr, ptr %8, align 8
  %85 = tail call ptr @g_list_delete_link(ptr noundef %84, ptr noundef nonnull %.092117) #20
  store ptr %85, ptr %8, align 8
  br label %107

86:                                               ; preds = %69
  %87 = getelementptr inbounds nuw i8, ptr %.092117, i64 8
  %88 = load ptr, ptr %87, align 8
  %.not = icmp eq ptr %88, null
  br i1 %.not, label %89, label %19, !llvm.loop !33

89:                                               ; preds = %86
  %.not97 = icmp ne i32 %4, 0
  %90 = sub i32 %spec.select, %2
  %91 = icmp slt i32 %90, 0
  %or.cond = select i1 %.not97, i1 %91, i1 false
  br i1 %or.cond, label %92, label %107

92:                                               ; preds = %89
  %93 = sub i32 %spec.select, %18
  %94 = tail call noalias ptr (ptr, ptr, ...) @wmem_strdup_printf(ptr noundef null, ptr noundef nonnull @.str.980, i32 noundef %93) #20
  %95 = tail call noalias dereferenceable_or_null(40) ptr @g_malloc0_n(i64 noundef 1, i64 noundef 40) #25
  %96 = tail call ptr @g_byte_array_new() #20
  %97 = tail call i64 @strlen(ptr noundef nonnull dereferenceable(1) %94) #21
  %98 = trunc i64 %97 to i32
  %99 = add i32 %98, 1
  %100 = tail call ptr @g_byte_array_append(ptr noundef %96, ptr noundef nonnull %94, i32 noundef %99) #20
  %101 = getelementptr inbounds nuw i8, ptr %95, i64 32
  store ptr %100, ptr %101, align 8
  tail call void @g_free(ptr noundef nonnull %94) #20
  store i32 %1, ptr %95, align 8
  %102 = getelementptr inbounds nuw i8, ptr %95, i64 4
  store i32 %3, ptr %102, align 4
  %103 = getelementptr inbounds nuw i8, ptr %95, i64 8
  store i32 %spec.select, ptr %103, align 8
  store i32 %spec.select, ptr %17, align 4
  %104 = getelementptr inbounds nuw i8, ptr %0, i64 16
  %105 = load ptr, ptr %104, align 8
  %106 = tail call ptr @g_list_prepend(ptr noundef %105, ptr noundef nonnull %95) #20
  store ptr %106, ptr %104, align 8
  br label %107

107:                                              ; preds = %89, %5, %92, %80, %64
  %.0 = phi i32 [ 1, %64 ], [ 1, %80 ], [ 1, %92 ], [ 0, %5 ], [ 0, %89 ]
  ret i32 %.0
}